(lp0
S'BPMS:IN20:221'
p1
aS'BPMS:IN20:235'
p2
aS'BPMS:IN20:371'
p3
aS'BPMS:IN20:425'
p4
aS'BPMS:IN20:511'
p5
aS'BPMS:IN20:525'
p6
aS'BPMS:IN20:581'
p7
aS'BPMS:IN20:631'
p8
aS'BPMS:IN20:651'
p9
aS'BPMS:IN20:731'
p10
aS'BPMS:IN20:771'
p11
aS'BPMS:IN20:781'
p12
aS'BPMS:LI21:131'
p13
aS'BPMS:LI21:161'
p14
aS'BPMS:LI21:201'
p15
aS'BPMS:LI21:233'
p16
aS'BPMS:LI21:278'
p17
aS'BPMS:LI21:301'
p18
aS'BPMS:LI21:315'
p19
aS'BPMS:LI21:401'
p20
aS'BPMS:LI21:501'
p21
aS'BPMS:LI21:601'
p22
aS'BPMS:LI21:701'
p23
aS'BPMS:LI21:801'
p24
aS'BPMS:LI21:901'
p25
aS'BPMS:LI22:201'
p26
aS'BPMS:LI22:301'
p27
aS'BPMS:LI22:401'
p28
aS'BPMS:LI22:501'
p29
aS'BPMS:LI22:601'
p30
aS'BPMS:LI22:701'
p31
aS'BPMS:LI22:801'
p32
aS'BPMS:LI22:901'
p33
aS'BPMS:LI23:201'
p34
aS'BPMS:LI23:301'
p35
aS'BPMS:LI23:401'
p36
aS'BPMS:LI23:501'
p37
aS'BPMS:LI23:601'
p38
aS'BPMS:LI23:701'
p39
aS'BPMS:LI23:801'
p40
aS'BPMS:LI23:901'
p41
aS'BPMS:LI24:201'
p42
aS'BPMS:LI24:301'
p43
aS'BPMS:LI24:401'
p44
aS'BPMS:LI24:501'
p45
aS'BPMS:LI24:601'
p46
aS'BPMS:LI24:701'
p47
aS'BPMS:LI24:801'
p48
aS'BPMS:LI24:901'
p49
aS'BPMS:LI25:201'
p50
aS'BPMS:LI25:301'
p51
aS'BPMS:LI25:401'
p52
aS'BPMS:LI25:501'
p53
aS'BPMS:LI25:601'
p54
aS'BPMS:LI25:701'
p55
aS'BPMS:LI25:801'
p56
aS'BPMS:LI25:901'
p57
aS'BPMS:LI26:201'
p58
aS'BPMS:LI26:301'
p59
aS'BPMS:LI26:401'
p60
aS'BPMS:LI26:501'
p61
aS'BPMS:LI26:601'
p62
aS'BPMS:LI26:701'
p63
aS'BPMS:LI26:801'
p64
aS'BPMS:LI26:901'
p65
aS'BPMS:LI27:201'
p66
aS'BPMS:LI27:301'
p67
aS'BPMS:LI27:401'
p68
aS'BPMS:LI27:501'
p69
aS'BPMS:LI27:601'
p70
aS'BPMS:LI27:701'
p71
aS'BPMS:LI27:801'
p72
aS'BPMS:LI27:901'
p73
aS'BPMS:LI28:201'
p74
aS'BPMS:LI28:301'
p75
aS'BPMS:LI28:401'
p76
aS'BPMS:LI28:501'
p77
aS'BPMS:LI28:601'
p78
aS'BPMS:LI28:701'
p79
aS'BPMS:LI28:801'
p80
aS'BPMS:LI28:901'
p81
aS'BPMS:LI29:201'
p82
aS'BPMS:LI29:301'
p83
aS'BPMS:LI29:401'
p84
aS'BPMS:LI29:501'
p85
aS'BPMS:LI29:601'
p86
aS'BPMS:LI29:701'
p87
aS'BPMS:LI29:801'
p88
aS'BPMS:LI29:901'
p89
aS'BPMS:LI30:201'
p90
aS'BPMS:LI30:301'
p91
aS'BPMS:LI30:401'
p92
aS'BPMS:LI30:501'
p93
aS'BPMS:LI30:601'
p94
aS'BPMS:LI30:701'
p95
aS'BPMS:LI30:801'
p96
aS'BPMS:CLTH:140'
p97
aS'BPMS:CLTH:170'
p98
aS'BPMS:BSYH:445'
p99
aS'BPMS:BSYH:465'
p100
aS'BPMS:BSYH:640'
p101
aS'BPMS:BSYH:735'
p102
aS'BPMS:BSYH:910'
p103
aS'BPMS:LTU0:110'
p104
aS'BPMS:LTU0:120'
p105
aS'BPMS:LTU0:130'
p106
aS'BPMS:LTU0:150'
p107
aS'BPMS:LTU0:170'
p108
aS'BPMS:LTU0:180'
p109
aS'BPMS:LTU0:190'
p110
aS'BPMS:LTU1:250'
p111
aS'BPMS:LTU1:290'
p112
aS'BPMS:LTU1:350'
p113
aS'BPMS:LTU1:390'
p114
aS'BPMS:LTU1:450'
p115
aS'BPMS:LTU1:490'
p116
aS'BPMS:LTU1:550'
p117
aS'BPMS:LTU1:590'
p118
aS'BPMS:LTU1:620'
p119
aS'BPMS:LTU1:640'
p120
aS'BPMS:LTU1:660'
p121
aS'BPMS:LTU1:680'
p122
aS'BPMS:LTU1:720'
p123
aS'BPMS:LTU1:730'
p124
aS'BPMS:LTU1:740'
p125
aS'BPMS:LTU1:750'
p126
aS'BPMS:LTU1:760'
p127
aS'BPMS:LTU1:770'
p128
aS'BPMS:LTU1:820'
p129
aS'BPMS:LTU1:840'
p130
aS'BPMS:LTU1:860'
p131
aS'BPMS:LTU1:880'
p132
aS'BPMS:LTU1:910'
p133
aS'BPMS:LTU1:960'
p134
aS'BPMS:UND1:100'
p135
aS'BPMS:UND1:1090'
p136
aS'BPMS:UND1:1190'
p137
aS'BPMS:UND1:1290'
p138
aS'BPMS:UND1:1390'
p139
aS'BPMS:UND1:1490'
p140
aS'BPMS:UND1:1590'
p141
aS'BPMS:UND1:1690'
p142
aS'BPMS:UND1:1790'
p143
aS'BPMS:UND1:1890'
p144
aS'BPMS:UND1:190'
p145
aS'BPMS:UND1:1990'
p146
aS'BPMS:UND1:2090'
p147
aS'BPMS:UND1:2190'
p148
aS'BPMS:UND1:2290'
p149
aS'BPMS:UND1:2390'
p150
aS'BPMS:UND1:2490'
p151
aS'BPMS:UND1:2590'
p152
aS'BPMS:UND1:2690'
p153
aS'BPMS:UND1:2790'
p154
aS'BPMS:UND1:2890'
p155
aS'BPMS:UND1:290'
p156
aS'BPMS:UND1:2990'
p157
aS'BPMS:UND1:3090'
p158
aS'BPMS:UND1:3190'
p159
aS'BPMS:UND1:3290'
p160
aS'BPMS:UND1:3390'
p161
aS'BPMS:UND1:3396'
p162
aS'BPMS:UND1:390'
p163
aS'BPMS:UND1:490'
p164
aS'BPMS:UND1:590'
p165
aS'BPMS:UND1:690'
p166
aS'BPMS:UND1:790'
p167
aS'BPMS:UND1:890'
p168
aS'BPMS:UND1:990'
p169
aS'BPMS:DMP1:299'
p170
aS'BPMS:DMP1:381'
p171
aS'BPMS:DMP1:398'
p172
aS'BPMS:DMP1:502'
p173
aS'BPMS:DMP1:693'
p174
a.